; ModuleID = '24/11.c'
source_filename = "24/11.c"
target datalayout = "e-m:e-p270:32:32-p271:32:32-p272:64:64-i64:64-f80:128-n8:16:32:64-S128"
target triple = "x86_64-pc-linux-gnu"

@.str = private unnamed_addr constant [3 x i8] c"%s\00", align 1

; Function Attrs: noinline nounwind uwtable
define dso_local i32 @main() #0 {
  %1 = alloca i32, align 4
  %2 = alloca [100 x [100 x i8]], align 16
  %3 = alloca i32, align 4
  %4 = alloca i32, align 4
  %5 = alloca i32, align 4
  %6 = alloca [0 x i8]*, align 8
  %7 = alloca [0 x i8]*, align 8
  store i32 0, i32* %1, align 4
  %8 = getelementptr inbounds [100 x [100 x i8]], [100 x [100 x i8]]* %2, i64 0, i64 0
  %9 = getelementptr inbounds [100 x i8], [100 x i8]* %8, i64 0, i64 0
  %10 = call i32 (i8*, ...) @__isoc99_scanf(i8* getelementptr inbounds ([3 x i8], [3 x i8]* @.str, i64 0, i64 0), i8* %9)
  store i32 0, i32* %4, align 4
  store i32 1, i32* %3, align 4
  br label %11

11:                                               ; preds = %20, %0
  %12 = call i32 @getchar()
  %13 = icmp eq i32 %12, 32
  br i1 %13, label %14, label %23

14:                                               ; preds = %11
  %15 = load i32, i32* %3, align 4
  %16 = sext i32 %15 to i64
  %17 = getelementptr inbounds [100 x [100 x i8]], [100 x [100 x i8]]* %2, i64 0, i64 %16
  %18 = getelementptr inbounds [100 x i8], [100 x i8]* %17, i64 0, i64 0
  %19 = call i32 (i8*, ...) @__isoc99_scanf(i8* getelementptr inbounds ([3 x i8], [3 x i8]* @.str, i64 0, i64 0), i8* %18)
  br label %20

20:                                               ; preds = %14
  %21 = load i32, i32* %3, align 4
  %22 = add nsw i32 %21, 1
  store i32 %22, i32* %3, align 4
  br label %11

23:                                               ; preds = %11
  %24 = getelementptr inbounds [100 x [100 x i8]], [100 x [100 x i8]]* %2, i64 0, i64 0
  %25 = bitcast [100 x i8]* %24 to [0 x i8]*
  store [0 x i8]* %25, [0 x i8]** %6, align 8
  %26 = getelementptr inbounds [100 x [100 x i8]], [100 x [100 x i8]]* %2, i64 0, i64 0
  %27 = bitcast [100 x i8]* %26 to [0 x i8]*
  store [0 x i8]* %27, [0 x i8]** %7, align 8
  store i32 1, i32* %4, align 4
  br label %28

28:                                               ; preds = %63, %23
  %29 = load i32, i32* %4, align 4
  %30 = load i32, i32* %3, align 4
  %31 = icmp slt i32 %29, %30
  br i1 %31, label %32, label %66

32:                                               ; preds = %28
  %33 = load [0 x i8]*, [0 x i8]** %6, align 8
  %34 = getelementptr inbounds [0 x i8], [0 x i8]* %33, i64 0, i64 0
  %35 = call i64 @strlen(i8* %34) #3
  %36 = load i32, i32* %4, align 4
  %37 = sext i32 %36 to i64
  %38 = getelementptr inbounds [100 x [100 x i8]], [100 x [100 x i8]]* %2, i64 0, i64 %37
  %39 = getelementptr inbounds [100 x i8], [100 x i8]* %38, i64 0, i64 0
  %40 = call i64 @strlen(i8* %39) #3
  %41 = icmp ult i64 %35, %40
  br i1 %41, label %42, label %47

42:                                               ; preds = %32
  %43 = load i32, i32* %4, align 4
  %44 = sext i32 %43 to i64
  %45 = getelementptr inbounds [100 x [100 x i8]], [100 x [100 x i8]]* %2, i64 0, i64 %44
  %46 = bitcast [100 x i8]* %45 to [0 x i8]*
  store [0 x i8]* %46, [0 x i8]** %6, align 8
  br label %47

47:                                               ; preds = %42, %32
  %48 = load [0 x i8]*, [0 x i8]** %7, align 8
  %49 = getelementptr inbounds [0 x i8], [0 x i8]* %48, i64 0, i64 0
  %50 = call i64 @strlen(i8* %49) #3
  %51 = load i32, i32* %4, align 4
  %52 = sext i32 %51 to i64
  %53 = getelementptr inbounds [100 x [100 x i8]], [100 x [100 x i8]]* %2, i64 0, i64 %52
  %54 = getelementptr inbounds [100 x i8], [100 x i8]* %53, i64 0, i64 0
  %55 = call i64 @strlen(i8* %54) #3
  %56 = icmp ugt i64 %50, %55
  br i1 %56, label %57, label %62

57:                                               ; preds = %47
  %58 = load i32, i32* %4, align 4
  %59 = sext i32 %58 to i64
  %60 = getelementptr inbounds [100 x [100 x i8]], [100 x [100 x i8]]* %2, i64 0, i64 %59
  %61 = bitcast [100 x i8]* %60 to [0 x i8]*
  store [0 x i8]* %61, [0 x i8]** %7, align 8
  br label %62

62:                                               ; preds = %57, %47
  br label %63

63:                                               ; preds = %62
  %64 = load i32, i32* %4, align 4
  %65 = add nsw i32 %64, 1
  store i32 %65, i32* %4, align 4
  br label %28

66:                                               ; preds = %28
  %67 = load [0 x i8]*, [0 x i8]** %6, align 8
  %68 = getelementptr inbounds [0 x i8], [0 x i8]* %67, i64 0, i64 0
  %69 = call i32 @puts(i8* %68)
  %70 = load [0 x i8]*, [0 x i8]** %7, align 8
  %71 = getelementptr inbounds [0 x i8], [0 x i8]* %70, i64 0, i64 0
  %72 = call i32 @puts(i8* %71)
  ret i32 0
}

declare dso_local i32 @__isoc99_scanf(i8*, ...) #1

declare dso_local i32 @getchar() #1

; Function Attrs: nounwind readonly
declare dso_local i64 @strlen(i8*) #2

declare dso_local i32 @puts(i8*) #1


!llvm.module.flags = !{!0}
!llvm.ident = !{!1}

!0 = !{i32 1, !"wchar_size", i32 4}
!1 = !{!"clang version 10.0.0-4ubuntu1 "}
